target datalayout = "e-m:e-p270:32:32-p271:32:32-p272:64:64-i64:64-i128:128-f80:128-n8:16:32:64-S128"
target triple = "x86_64-pc-linux-gnu"

%"struct.g2o::HyperGraph::HyperGraphElement" = type { ptr }
%"class.g2o::HyperGraph::Vertex" = type { %"struct.g2o::HyperGraph::HyperGraphElement", i32, %"class.std::set" }
%"class.std::set" = type { %"class.std::_Rb_tree" }
%"class.std::_Rb_tree" = type { %"struct.std::_Rb_tree<g2o::HyperGraph::Edge *, g2o::HyperGraph::Edge *, std::_Identity<g2o::HyperGraph::Edge *>, std::less<g2o::HyperGraph::Edge *>>::_Rb_tree_impl" }
%"struct.std::_Rb_tree<g2o::HyperGraph::Edge *, g2o::HyperGraph::Edge *, std::_Identity<g2o::HyperGraph::Edge *>, std::less<g2o::HyperGraph::Edge *>>::_Rb_tree_impl" = type { [8 x i8], %"struct.std::_Rb_tree_header" }
%"struct.std::_Rb_tree_header" = type { %"struct.std::_Rb_tree_node_base", i64 }
%"struct.std::_Rb_tree_node_base" = type { i32, ptr, ptr, ptr }
%"struct.std::__detail::_Node_iterator" = type { %"struct.std::__detail::_Node_iterator_base" }
%"struct.std::__detail::_Node_iterator_base" = type { ptr }
%"class.g2o::HyperGraph" = type { ptr, %"class.std::unordered_map", %"class.std::set" }
%"class.std::unordered_map" = type { %"class.std::_Hashtable" }
%"class.std::_Hashtable" = type { ptr, i64, %"struct.std::__detail::_Hash_node_base", i64, %"struct.std::__detail::_Prime_rehash_policy", ptr }
%"struct.std::__detail::_Hash_node_base" = type { ptr }
%"struct.std::__detail::_Prime_rehash_policy" = type { float, i64 }
%"struct.std::pair.8" = type <{ %"struct.std::__detail::_Node_iterator", i8, [7 x i8] }>
%"struct.std::pair.10" = type { i32, ptr }

; Function Attrs: mustprogress uwtable
define linkonce_odr { ptr, i8 } @_ZNSt10_HashtableIiSt4pairIKiPN3g2o10HyperGraph6VertexEESaIS6_ENSt8__detail10_Select1stESt8equal_toIiESt4hashIiENS8_18_Mod_range_hashingENS8_20_Default_ranged_hashENS8_20_Prime_rehash_policyENS8_17_Hashtable_traitsILb0ELb0ELb1EEEE7emplaceIJS0_IiS5_EEEES0_INS8_14_Node_iteratorIS6_Lb0ELb0EEEbEDpOT_(ptr noundef nonnull align 8 dereferenceable(56) %0, ptr noundef nonnull align 8 dereferenceable(16) %1) #4 comdat align 2 {
  %3 = alloca %"struct.std::pair.8", align 8
  %4 = alloca ptr, align 8
  %5 = alloca ptr, align 8
  %6 = alloca { ptr, i8 }, align 8
  store ptr %0, ptr %4, align 8, !tbaa !200
  store ptr %1, ptr %5, align 8, !tbaa !74
  %7 = load ptr, ptr %4, align 8
  %8 = load ptr, ptr %5, align 8, !tbaa !74
  %9 = call { ptr, i8 } @_ZNSt10_HashtableIiSt4pairIKiPN3g2o10HyperGraph6VertexEESaIS6_ENSt8__detail10_Select1stESt8equal_toIiESt4hashIiENS8_18_Mod_range_hashingENS8_20_Default_ranged_hashENS8_20_Prime_rehash_policyENS8_17_Hashtable_traitsILb0ELb0ELb1EEEE10_M_emplaceIJS0_IiS5_EEEES0_INS8_14_Node_iteratorIS6_Lb0ELb0EEEbESt17integral_constantIbLb1EEDpOT_(ptr noundef nonnull align 8 dereferenceable(56) %7, ptr noundef nonnull align 8 dereferenceable(16) %8)
  store { ptr, i8 } %9, ptr %6, align 8
  call void @llvm.memcpy.p0.p0.i64(ptr align 8 %3, ptr align 8 %6, i64 9, i1 false)
  %10 = load { ptr, i8 }, ptr %3, align 8
  ret { ptr, i8 } %10
}

; Function Attrs: mustprogress nounwind uwtable
define linkonce_odr void @_ZNSt4pairIiPN3g2o10HyperGraph6VertexEEC2IiRS3_TnNSt9enable_ifIXaaclsr5_PCCPE22_MoveConstructiblePairIT_T0_EEclsr5_PCCPE30_ImplicitlyMoveConvertiblePairIS8_S9_EEEbE4typeELb1EEEOS8_OS9_(ptr noundef nonnull align 8 dereferenceable(16) %0, ptr noundef nonnull align 4 dereferenceable(4) %1, ptr noundef nonnull align 8 dereferenceable(8) %2) unnamed_addr #0 comdat align 2 {
  %4 = alloca ptr, align 8
  %5 = alloca ptr, align 8
  %6 = alloca ptr, align 8
  store ptr %0, ptr %4, align 8, !tbaa !74
  store ptr %1, ptr %5, align 8, !tbaa !57
  store ptr %2, ptr %6, align 8, !tbaa !49
  %7 = load ptr, ptr %4, align 8
  %8 = getelementptr inbounds nuw %"struct.std::pair.10", ptr %7, i32 0, i32 0
  %9 = load ptr, ptr %5, align 8, !tbaa !57
  %10 = load i32, ptr %9, align 4, !tbaa !19
  store i32 %10, ptr %8, align 8, !tbaa !137
  %11 = getelementptr inbounds nuw %"struct.std::pair.10", ptr %7, i32 0, i32 1
  %12 = load ptr, ptr %6, align 8, !tbaa !49
  %13 = load ptr, ptr %12, align 8, !tbaa !17
  store ptr %13, ptr %11, align 8, !tbaa !139
  ret void
}

; Function Attrs: mustprogress uwtable
define linkonce_odr { ptr, i8 } @_ZNSt13unordered_mapIiPN3g2o10HyperGraph6VertexESt4hashIiESt8equal_toIiESaISt4pairIKiS3_EEE6insertIS8_IiS3_EEENSt9enable_ifIXsr16is_constructibleISA_OT_EE5valueES8_INSt8__detail14_Node_iteratorISA_Lb0ELb0EEEbEE4typeESH_(ptr noundef nonnull align 8 dereferenceable(56) %0, ptr noundef nonnull align 8 dereferenceable(16) %1) #4 comdat align 2 {
  %3 = alloca %"struct.std::pair.8", align 8
  %4 = alloca ptr, align 8
  %5 = alloca ptr, align 8
  %6 = alloca { ptr, i8 }, align 8
  store ptr %0, ptr %4, align 8, !tbaa !55
  store ptr %1, ptr %5, align 8, !tbaa !74
  %7 = load ptr, ptr %4, align 8
  %8 = getelementptr inbounds nuw %"class.std::unordered_map", ptr %7, i32 0, i32 0
  %9 = load ptr, ptr %5, align 8, !tbaa !74
  %10 = call { ptr, i8 } @_ZNSt10_HashtableIiSt4pairIKiPN3g2o10HyperGraph6VertexEESaIS6_ENSt8__detail10_Select1stESt8equal_toIiESt4hashIiENS8_18_Mod_range_hashingENS8_20_Default_ranged_hashENS8_20_Prime_rehash_policyENS8_17_Hashtable_traitsILb0ELb0ELb1EEEE7emplaceIJS0_IiS5_EEEES0_INS8_14_Node_iteratorIS6_Lb0ELb0EEEbEDpOT_(ptr noundef nonnull align 8 dereferenceable(56) %8, ptr noundef nonnull align 8 dereferenceable(16) %9)
  store { ptr, i8 } %10, ptr %6, align 8
  call void @llvm.memcpy.p0.p0.i64(ptr align 8 %3, ptr align 8 %6, i64 9, i1 false)
  %11 = load { ptr, i8 }, ptr %3, align 8
  ret { ptr, i8 } %11
}

; Function Attrs: mustprogress uwtable
define linkonce_odr { i32, ptr } @_ZSt9make_pairIiRPN3g2o10HyperGraph6VertexEESt4pairINSt25__strip_reference_wrapperINSt5decayIT_E4typeEE6__typeENS6_INS7_IT0_E4typeEE6__typeEEOS8_OSD_(ptr noundef nonnull align 4 dereferenceable(4) %0, ptr noundef nonnull align 8 dereferenceable(8) %1) #4 comdat {
  %3 = alloca %"struct.std::pair.10", align 8
  %4 = alloca ptr, align 8
  %5 = alloca ptr, align 8
  store ptr %0, ptr %4, align 8, !tbaa !57
  store ptr %1, ptr %5, align 8, !tbaa !49
  %6 = load ptr, ptr %4, align 8, !tbaa !57
  %7 = load ptr, ptr %5, align 8, !tbaa !49
  call void @_ZNSt4pairIiPN3g2o10HyperGraph6VertexEEC2IiRS3_TnNSt9enable_ifIXaaclsr5_PCCPE22_MoveConstructiblePairIT_T0_EEclsr5_PCCPE30_ImplicitlyMoveConvertiblePairIS8_S9_EEEbE4typeELb1EEEOS8_OS9_(ptr noundef nonnull align 8 dereferenceable(16) %3, ptr noundef nonnull align 4 dereferenceable(4) %6, ptr noundef nonnull align 8 dereferenceable(8) %7)
  %8 = load { i32, ptr }, ptr %3, align 8
  ret { i32, ptr } %8
}

; Function Attrs: mustprogress nounwind uwtable
define linkonce_odr noundef i32 @_ZNK3g2o10HyperGraph6Vertex2idEv(ptr noundef nonnull align 8 dereferenceable(64) %0) #0 comdat align 2 {
  %2 = alloca ptr, align 8
  store ptr %0, ptr %2, align 8, !tbaa !17
  %3 = load ptr, ptr %2, align 8
  %4 = getelementptr inbounds nuw %"class.g2o::HyperGraph::Vertex", ptr %3, i32 0, i32 1
  %5 = load i32, ptr %4, align 8, !tbaa !21
  ret i32 %5
}

; Function Attrs: mustprogress uwtable
define noundef zeroext i1 @_ZN3g2o10HyperGraph9addVertexEPNS0_6VertexE(ptr noundef nonnull align 8 dereferenceable(112) %0, ptr noundef %1) unnamed_addr #4 align 2 {
  %3 = alloca ptr, align 8
  %4 = alloca ptr, align 8
  %5 = alloca %"struct.std::pair.8", align 8
  %6 = alloca %"struct.std::pair.10", align 8
  %7 = alloca i32, align 4
  %8 = alloca { ptr, i8 }, align 8
  store ptr %0, ptr %3, align 8, !tbaa !51
  store ptr %1, ptr %4, align 8, !tbaa !17
  %9 = load ptr, ptr %3, align 8
  call void @llvm.lifetime.start.p0(i64 16, ptr %5) #16
  %10 = getelementptr inbounds nuw %"class.g2o::HyperGraph", ptr %9, i32 0, i32 1
  call void @llvm.lifetime.start.p0(i64 16, ptr %6) #16
  call void @llvm.lifetime.start.p0(i64 4, ptr %7) #16
  %11 = load ptr, ptr %4, align 8, !tbaa !17
  %12 = call noundef i32 @_ZNK3g2o10HyperGraph6Vertex2idEv(ptr noundef nonnull align 8 dereferenceable(64) %11)
  store i32 %12, ptr %7, align 4, !tbaa !19
  %13 = call { i32, ptr } @_ZSt9make_pairIiRPN3g2o10HyperGraph6VertexEESt4pairINSt25__strip_reference_wrapperINSt5decayIT_E4typeEE6__typeENS6_INS7_IT0_E4typeEE6__typeEEOS8_OSD_(ptr noundef nonnull align 4 dereferenceable(4) %7, ptr noundef nonnull align 8 dereferenceable(8) %4)
  %14 = getelementptr inbounds nuw { i32, ptr }, ptr %6, i32 0, i32 0
  %15 = extractvalue { i32, ptr } %13, 0
  store i32 %15, ptr %14, align 8
  %16 = getelementptr inbounds nuw { i32, ptr }, ptr %6, i32 0, i32 1
  %17 = extractvalue { i32, ptr } %13, 1
  store ptr %17, ptr %16, align 8
  %18 = call { ptr, i8 } @_ZNSt13unordered_mapIiPN3g2o10HyperGraph6VertexESt4hashIiESt8equal_toIiESaISt4pairIKiS3_EEE6insertIS8_IiS3_EEENSt9enable_ifIXsr16is_constructibleISA_OT_EE5valueES8_INSt8__detail14_Node_iteratorISA_Lb0ELb0EEEbEE4typeESH_(ptr noundef nonnull align 8 dereferenceable(56) %10, ptr noundef nonnull align 8 dereferenceable(16) %6)
  store { ptr, i8 } %18, ptr %8, align 8
  call void @llvm.memcpy.p0.p0.i64(ptr align 8 %5, ptr align 8 %8, i64 9, i1 false)
  call void @llvm.lifetime.end.p0(i64 4, ptr %7) #16
  call void @llvm.lifetime.end.p0(i64 16, ptr %6) #16
  %19 = getelementptr inbounds nuw %"struct.std::pair.8", ptr %5, i32 0, i32 1
  %20 = load i8, ptr %19, align 8, !tbaa !68, !range !72, !noundef !73
  %21 = trunc i8 %20 to i1
  call void @llvm.lifetime.end.p0(i64 16, ptr %5) #16
  ret i1 %21
}