; Function Attrs: mustprogress uwtable
define noundef zeroext i1 @_ZN3g2o10HyperGraph9addVertexEPNS0_6VertexE(ptr noundef nonnull align 8 dereferenceable(112) %0, ptr noundef %1) unnamed_addr #6 align 2 {
  %3 = alloca %"struct.std::pair.10", align 8
  %4 = getelementptr inbounds nuw i8, ptr %0, i64 8
  call void @llvm.lifetime.start.p0(i64 16, ptr nonnull %3) #19
  %5 = getelementptr inbounds nuw i8, ptr %1, i64 8
  %6 = load i32, ptr %5, align 8, !tbaa !13
  store i32 %6, ptr %3, align 8
  %7 = getelementptr inbounds nuw i8, ptr %3, i64 8
  store ptr %1, ptr %7, align 8
  %8 = call { ptr, i8 } @_ZNSt10_HashtableIiSt4pairIKiPN3g2o10HyperGraph6VertexEESaIS6_ENSt8__detail10_Select1stESt8equal_toIiESt4hashIiENS8_18_Mod_range_hashingENS8_20_Default_ranged_hashENS8_20_Prime_rehash_policyENS8_17_Hashtable_traitsILb0ELb0ELb1EEEE10_M_emplaceIJS0_IiS5_EEEES0_INS8_14_Node_iteratorIS6_Lb0ELb0EEEbESt17integral_constantIbLb1EEDpOT_(ptr noundef nonnull align 8 dereferenceable(56) %4, ptr noundef nonnull align 8 dereferenceable(16) %3)
  %.fca.1.extract = extractvalue { ptr, i8 } %8, 1
  call void @llvm.lifetime.end.p0(i64 16, ptr nonnull %3) #19
  %9 = trunc i8 %.fca.1.extract to i1
  ret i1 %9
}